target datalayout = "e-m:e-p270:32:32-p271:32:32-p272:64:64-i64:64-i128:128-f80:128-n8:16:32:64-S128"
target triple = "x86_64-pc-linux-gnu"

%struct._zval_struct = type { %union._zend_value, %union.anon, %union.anon.2 }
%union._zend_value = type { i64 }
%union.anon = type { i32 }
%union.anon.2 = type { i32 }
%struct._zend_refcounted_h = type { i32, %union.anon.6 }
%union.anon.6 = type { i32 }
%struct._zend_string = type { %struct._zend_refcounted_h, i64, i64, [1 x i8] }

@.str = private unnamed_addr constant [21 x i8] c"SQLSTATE[%s] [%d] %s\00", align 1
@.str.1 = private unnamed_addr constant [10 x i8] c"errorInfo\00", align 1
@.str.2 = private unnamed_addr constant [5 x i8] c"code\00", align 1
@.str.3 = private unnamed_addr constant [8 x i8] c"message\00", align 1

; Function Attrs: alwaysinline nounwind uwtable
define internal i32 @zend_gc_delref(ptr noundef %0) #3 {
  %2 = alloca ptr, align 8
  store ptr %0, ptr %2, align 8, !tbaa !142
  %3 = load ptr, ptr %2, align 8, !tbaa !142
  %4 = getelementptr inbounds nuw %struct._zend_refcounted_h, ptr %3, i32 0, i32 0
  %5 = load i32, ptr %4, align 4, !tbaa !144
  %6 = icmp ugt i32 %5, 0
  call void @llvm.assume(i1 %6)
  br label %7

7:                                                ; preds = %1
  br label %8

8:                                                ; preds = %7
  %9 = load ptr, ptr %2, align 8, !tbaa !142
  %10 = getelementptr inbounds nuw %struct._zend_refcounted_h, ptr %9, i32 0, i32 0
  %11 = load i32, ptr %10, align 4, !tbaa !144
  %12 = add i32 %11, -1
  store i32 %12, ptr %10, align 4, !tbaa !144
  ret i32 %12
}

; Function Attrs: alwaysinline nounwind uwtable
define internal i32 @zval_gc_flags(i32 noundef %0) #3 {
  %2 = alloca i32, align 4
  store i32 %0, ptr %2, align 4, !tbaa !4
  %3 = load i32, ptr %2, align 4, !tbaa !4
  %4 = lshr i32 %3, 0
  %5 = and i32 %4, 1008
  ret i32 %5
}

; Function Attrs: alwaysinline nounwind uwtable
define internal void @zend_string_release_ex(ptr noundef %0, i1 noundef zeroext %1) #3 {
  %3 = alloca ptr, align 8
  %4 = alloca i8, align 1
  store ptr %0, ptr %3, align 8, !tbaa !16
  %5 = zext i1 %1 to i8
  store i8 %5, ptr %4, align 1, !tbaa !18
  %6 = load ptr, ptr %3, align 8, !tbaa !16
  %7 = getelementptr inbounds nuw %struct._zend_string, ptr %6, i32 0, i32 0
  %8 = getelementptr inbounds nuw %struct._zend_refcounted_h, ptr %7, i32 0, i32 1
  %9 = load i32, ptr %8, align 4, !tbaa !15
  %10 = call i32 @zval_gc_flags(i32 noundef %9)
  %11 = and i32 %10, 64
  %12 = icmp ne i32 %11, 0
  br i1 %12, label %27, label %13

13:                                               ; preds = %2
  %14 = load ptr, ptr %3, align 8, !tbaa !16
  %15 = getelementptr inbounds nuw %struct._zend_string, ptr %14, i32 0, i32 0
  %16 = call i32 @zend_gc_delref(ptr noundef %15)
  %17 = icmp eq i32 %16, 0
  br i1 %17, label %18, label %26

18:                                               ; preds = %13
  %19 = load i8, ptr %4, align 1, !tbaa !18, !range !20, !noundef !21
  %20 = trunc i8 %19 to i1
  br i1 %20, label %21, label %23

21:                                               ; preds = %18
  %22 = load ptr, ptr %3, align 8, !tbaa !16
  call void @free(ptr noundef %22) #14
  br label %25

23:                                               ; preds = %18
  %24 = load ptr, ptr %3, align 8, !tbaa !16
  call void @_efree(ptr noundef %24)
  br label %25

25:                                               ; preds = %23, %21
  br label %26

26:                                               ; preds = %25, %13
  br label %27

27:                                               ; preds = %26, %2
  ret void
}

; Function Attrs: nounwind uwtable
define dso_local void @pdo_throw_exception(i32 noundef %0, ptr noundef %1, ptr noundef %2) #0 {
  %4 = alloca i32, align 4
  %5 = alloca ptr, align 8
  %6 = alloca ptr, align 8
  %7 = alloca %struct._zval_struct, align 8
  %8 = alloca %struct._zval_struct, align 8
  %9 = alloca ptr, align 8
  %10 = alloca ptr, align 8
  %11 = alloca ptr, align 8
  store i32 %0, ptr %4, align 4, !tbaa !4
  store ptr %1, ptr %5, align 8, !tbaa !8
  store ptr %2, ptr %6, align 8, !tbaa !8
  call void @llvm.lifetime.start.p0(i64 16, ptr %7) #14
  call void @llvm.lifetime.start.p0(i64 16, ptr %8) #14
  %12 = call ptr @php_pdo_get_exception()
  %13 = call i32 @object_init_ex(ptr noundef %8, ptr noundef %12)
  br label %14

14:                                               ; preds = %3
  call void @llvm.lifetime.start.p0(i64 8, ptr %9) #14
  %15 = call ptr @_zend_new_array_0()
  store ptr %15, ptr %9, align 8, !tbaa !11
  call void @llvm.lifetime.start.p0(i64 8, ptr %10) #14
  store ptr %7, ptr %10, align 8, !tbaa !13
  %16 = load ptr, ptr %9, align 8, !tbaa !11
  %17 = load ptr, ptr %10, align 8, !tbaa !13
  %18 = getelementptr inbounds nuw %struct._zval_struct, ptr %17, i32 0, i32 0
  store ptr %16, ptr %18, align 8, !tbaa !15
  %19 = load ptr, ptr %10, align 8, !tbaa !13
  %20 = getelementptr inbounds nuw %struct._zval_struct, ptr %19, i32 0, i32 1
  store i32 775, ptr %20, align 8, !tbaa !15
  call void @llvm.lifetime.end.p0(i64 8, ptr %10) #14
  call void @llvm.lifetime.end.p0(i64 8, ptr %9) #14
  br label %21

21:                                               ; preds = %14
  br label %22

22:                                               ; preds = %21
  %23 = load ptr, ptr %6, align 8, !tbaa !8
  %24 = getelementptr inbounds [6 x i8], ptr %23, i64 0, i64 0
  %25 = call i32 @add_next_index_string(ptr noundef %7, ptr noundef %24)
  %26 = load i32, ptr %4, align 4, !tbaa !4
  %27 = zext i32 %26 to i64
  %28 = call i32 @add_next_index_long(ptr noundef %7, i64 noundef %27)
  %29 = load ptr, ptr %5, align 8, !tbaa !8
  %30 = call i32 @add_next_index_string(ptr noundef %7, ptr noundef %29)
  call void @llvm.lifetime.start.p0(i64 8, ptr %11) #14
  %31 = load ptr, ptr %6, align 8, !tbaa !8
  %32 = getelementptr inbounds [6 x i8], ptr %31, i64 0, i64 0
  %33 = load i32, ptr %4, align 4, !tbaa !4
  %34 = load ptr, ptr %5, align 8, !tbaa !8
  %35 = call ptr (i64, ptr, ...) @zend_strpprintf(i64 noundef 0, ptr noundef @.str, ptr noundef %32, i32 noundef %33, ptr noundef %34)
  store ptr %35, ptr %11, align 8, !tbaa !16
  %36 = call ptr @php_pdo_get_exception()
  %37 = getelementptr inbounds nuw %struct._zval_struct, ptr %8, i32 0, i32 0
  %38 = load ptr, ptr %37, align 8, !tbaa !15
  call void @zend_update_property(ptr noundef %36, ptr noundef %38, ptr noundef @.str.1, i64 noundef 9, ptr noundef %7)
  %39 = call ptr @php_pdo_get_exception()
  %40 = getelementptr inbounds nuw %struct._zval_struct, ptr %8, i32 0, i32 0
  %41 = load ptr, ptr %40, align 8, !tbaa !15
  %42 = load i32, ptr %4, align 4, !tbaa !4
  %43 = zext i32 %42 to i64
  call void @zend_update_property_long(ptr noundef %39, ptr noundef %41, ptr noundef @.str.2, i64 noundef 4, i64 noundef %43)
  %44 = call ptr @php_pdo_get_exception()
  %45 = getelementptr inbounds nuw %struct._zval_struct, ptr %8, i32 0, i32 0
  %46 = load ptr, ptr %45, align 8, !tbaa !15
  %47 = load ptr, ptr %11, align 8, !tbaa !16
  call void @zend_update_property_str(ptr noundef %44, ptr noundef %46, ptr noundef @.str.3, i64 noundef 7, ptr noundef %47)
  %48 = load ptr, ptr %11, align 8, !tbaa !16
  call void @zend_string_release_ex(ptr noundef %48, i1 noundef zeroext false)
  call void @zval_ptr_dtor(ptr noundef %7)
  call void @zend_throw_exception_object(ptr noundef %8)
  call void @llvm.lifetime.end.p0(i64 8, ptr %11) #14
  call void @llvm.lifetime.end.p0(i64 16, ptr %8) #14
  call void @llvm.lifetime.end.p0(i64 16, ptr %7) #14
  ret void
}