; Function Attrs: nounwind uwtable
define dso_local void @pdo_throw_exception(i32 noundef %0, ptr noundef %1, ptr noundef %2) local_unnamed_addr #0 {
  %4 = alloca %struct._zval_struct, align 8
  %5 = alloca %struct._zval_struct, align 8
  call void @llvm.lifetime.start.p0(i64 16, ptr nonnull %4) #13
  call void @llvm.lifetime.start.p0(i64 16, ptr nonnull %5) #13
  %6 = tail call ptr @php_pdo_get_exception() #13
  %7 = call i32 @object_init_ex(ptr noundef nonnull %5, ptr noundef %6) #13
  %8 = call ptr @_zend_new_array_0() #13
  store ptr %8, ptr %4, align 8, !tbaa !4
  %9 = getelementptr inbounds nuw i8, ptr %4, i64 8
  store i32 775, ptr %9, align 8, !tbaa !4
  %10 = call i32 @add_next_index_string(ptr noundef nonnull %4, ptr noundef %2) #13
  %11 = zext i32 %0 to i64
  %12 = call i32 @add_next_index_long(ptr noundef nonnull %4, i64 noundef %11) #13
  %13 = call i32 @add_next_index_string(ptr noundef nonnull %4, ptr noundef %1) #13
  %14 = call ptr (i64, ptr, ...) @zend_strpprintf(i64 noundef 0, ptr noundef nonnull @.str, ptr noundef %2, i32 noundef %0, ptr noundef %1) #13
  %15 = call ptr @php_pdo_get_exception() #13
  %16 = load ptr, ptr %5, align 8, !tbaa !4
  call void @zend_update_property(ptr noundef %15, ptr noundef %16, ptr noundef nonnull @.str.1, i64 noundef 9, ptr noundef nonnull %4) #13
  %17 = call ptr @php_pdo_get_exception() #13
  %18 = load ptr, ptr %5, align 8, !tbaa !4
  call void @zend_update_property_long(ptr noundef %17, ptr noundef %18, ptr noundef nonnull @.str.2, i64 noundef 4, i64 noundef %11) #13
  %19 = call ptr @php_pdo_get_exception() #13
  %20 = load ptr, ptr %5, align 8, !tbaa !4
  call void @zend_update_property_str(ptr noundef %19, ptr noundef %20, ptr noundef nonnull @.str.3, i64 noundef 7, ptr noundef %14) #13
  %21 = getelementptr inbounds nuw i8, ptr %14, i64 4
  %22 = load i32, ptr %21, align 4, !tbaa !4
  %23 = and i32 %22, 64
  %.not.i = icmp eq i32 %23, 0
  br i1 %.not.i, label %24, label %zend_string_release_ex.exit

24:                                               ; preds = %3
  %25 = load i32, ptr %14, align 4, !tbaa !7
  %26 = icmp ne i32 %25, 0
  call void @llvm.assume(i1 %26)
  %27 = add i32 %25, -1
  store i32 %27, ptr %14, align 4, !tbaa !7
  %28 = icmp eq i32 %27, 0
  br i1 %28, label %29, label %zend_string_release_ex.exit

29:                                               ; preds = %24
  call void @_efree(ptr noundef nonnull %14) #13
  br label %zend_string_release_ex.exit

zend_string_release_ex.exit:                      ; preds = %3, %24, %29
  call void @zval_ptr_dtor(ptr noundef nonnull %4) #13
  call void @zend_throw_exception_object(ptr noundef nonnull %5) #13
  call void @llvm.lifetime.end.p0(i64 16, ptr nonnull %5) #13
  call void @llvm.lifetime.end.p0(i64 16, ptr nonnull %4) #13
  ret void
}